(dp0
S'aefad'
p1
(lp2
S'Age: 47 years'
p3
aS'Weight: 156 lbs'
p4
aS"Height: 6' 2''"
p5
aS'Our patient is a 70 year old male referred for further asthma management.'
p6
aS'Asthma'
p7
aS'Hypertension'
p8
aS'Osteoarthritis, right knee'
p9
as.